; Function Attrs: mustprogress nounwind uwtable
define hidden void @_ZN6google8protobuf8compiler6csharp24ReflectionClassGeneratorD0Ev(ptr noundef nonnull align 8 dereferenceable(120) %this) unnamed_addr #4 align 2 {
entry:
  store ptr getelementptr inbounds ({ [4 x ptr] }, ptr @_ZTVN6google8protobuf8compiler6csharp24ReflectionClassGeneratorE, i64 0, i32 0, i64 2), ptr %this, align 8
  %extensionClassname_.i = getelementptr inbounds i8, ptr %this, i64 88
  tail call void @_ZNSt7__cxx1112basic_stringIcSt11char_traitsIcESaIcEED1Ev(ptr noundef nonnull align 8 dereferenceable(32) %extensionClassname_.i) #20
  %reflectionClassname_.i = getelementptr inbounds i8, ptr %this, i64 56
  tail call void @_ZNSt7__cxx1112basic_stringIcSt11char_traitsIcESaIcEED1Ev(ptr noundef nonnull align 8 dereferenceable(32) %reflectionClassname_.i) #20
  %namespace_.i = getelementptr inbounds i8, ptr %this, i64 24
  tail call void @_ZNSt7__cxx1112basic_stringIcSt11char_traitsIcESaIcEED1Ev(ptr noundef nonnull align 8 dereferenceable(32) %namespace_.i) #20
  tail call void @_ZN6google8protobuf8compiler6csharp19SourceGeneratorBaseD2Ev(ptr noundef nonnull align 8 dereferenceable(16) %this) #20
  tail call void @_ZdlPv(ptr noundef nonnull %this) #21
  ret void
}